(dp0
S'HEADER'
p1
S'This is a GPI Network File'
p2
sS'GPI_VERSION'
p3
S'0.2.0-n1'
p4
sS'PLATFORM'
p5
(dp6
S'OSX'
p7
S'10.10'
p8
sS'PYTHON_VERSION'
p9
S'2.7.6'
p10
sS'PYTHON'
p11
S'CPython'
p12
sS'TOTAL_PHYMEM'
p13
L17179869184L
sS'NUM_CPUS'
p14
I8
sS'HOSTNAME'
p15
S'tron.local'
p16
sg5
S'Darwin-14.0.0-x86_64-i386-64bit'
p17
sS'TOTAL_PHYMEM_STR'
p18
S'16.00 GB'
p19
sS'OS'
p20
S'Darwin'
p21
ssS'DATETIME'
p22
S'Fri Nov  7 12:56:35 2014'
p23
sS'NETWORK_VERSION'
p24
S'2'
p25
sS'layouts'
p26
(lp27
sS'TOTAL_PMEM'
p28
S'58674208'
p29
sS'nodes'
p30
(dp31
S'macroNodes'
p32
(lp33
(dp34
S'collapse'
p35
I01
sS'sink_settings'
p36
(dp37
S'widget_settings'
p38
(dp39
S'parms'
p40
(lp41
sS'label'
p42
S''
p43
ssS'avgwalltime'
p44
S'0.0016556084156'
p45
sS'name'
p46
S'__GPIMacroNode__'
p47
sS'pos'
p48
(lp49
F-48.81678556620602
aF-21.78069123006594
asS'id'
p50
I4677142232
sS'stdwalltime'
p51
S'0.000597576990855'
p52
sS'ports'
p53
(lp54
(dp55
S'connections'
p56
(lp57
(dp58
S'dest'
p59
(dp60
S'portName'
p61
S'in1'
p62
sS'portNum'
p63
I0
sS'portID'
p64
I4677162864
sS'nodeID'
p65
I4677142232
ssS'src'
p66
(dp67
g61
S'out'
p68
sg63
I0
sg64
I4676803328
sg65
I4676760240
ssasS'portnum'
p69
I0
sS'porttitle'
p70
g62
sS'widgetTitle'
p71
NsS'porttype'
p72
I65540
sS'obligation'
p73
I200
sg50
I4677162864
sa(dp74
g56
(lp75
sg69
I1
sg70
S'in2'
p76
sg71
Nsg72
I65540
sg73
I200
sg50
I4677163168
sa(dp77
g56
(lp78
sg69
I2
sg70
S'in3'
p79
sg71
Nsg72
I65540
sg73
I200
sg50
I4677163472
sa(dp80
g56
(lp81
sg69
I3
sg70
S'in4'
p82
sg71
Nsg72
I65540
sg73
I200
sg50
I4677163776
sa(dp83
g56
(lp84
sg69
I4
sg70
S'in5'
p85
sg71
Nsg72
I65540
sg73
I200
sg50
I4677164080
sa(dp86
g56
(lp87
sg69
I5
sg70
S'in6'
p88
sg71
Nsg72
I65540
sg73
I200
sg50
I4677164384
sa(dp89
g56
(lp90
sg69
I6
sg70
S'in7'
p91
sg71
Nsg72
I65540
sg73
I200
sg50
I4677164688
sa(dp92
g56
(lp93
sg69
I7
sg70
S'in8'
p94
sg71
Nsg72
I65540
sg73
I200
sg50
I4677202000
sa(dp95
g56
(lp96
sg69
I8
sg70
S'in9'
p97
sg71
Nsg72
I65540
sg73
I200
sg50
I4677202304
sa(dp98
g56
(lp99
sg69
I9
sg70
S'in10'
p100
sg71
Nsg72
I65540
sg73
I200
sg50
I4677202608
sa(dp101
g56
(lp102
sg69
I10
sg70
S'in11'
p103
sg71
Nsg72
I65540
sg73
I200
sg50
I4677202912
sa(dp104
g56
(lp105
sg69
I11
sg70
S'in12'
p106
sg71
Nsg72
I65540
sg73
I200
sg50
I4677203216
sa(dp107
g56
(lp108
sg69
I12
sg70
S'in13'
p109
sg71
Nsg72
I65540
sg73
I200
sg50
I4677203520
sa(dp110
g56
(lp111
sg69
I13
sg70
S'in14'
p112
sg71
Nsg72
I65540
sg73
I200
sg50
I4677203824
sa(dp113
g56
(lp114
sg69
I14
sg70
S'in15'
p115
sg71
Nsg72
I65540
sg73
I200
sg50
I4677204128
sa(dp116
g56
(lp117
sg69
I15
sg70
S'in16'
p118
sg71
Nsg72
I65540
sg73
I200
sg50
I4677204432
sa(dp119
g56
(lp120
(dp121
g59
(dp122
g61
S'in'
p123
sg63
I0
sg64
I4676728840
sg65
I4676689704
ssg66
(dp124
g61
S'out1'
p125
sg63
I0
sg64
I4677163016
sg65
I4677142232
ssasg69
I0
sg70
g125
sg71
Nsg72
I65541
sg73
Nsg50
I4677163016
sa(dp126
g56
(lp127
sg69
I1
sg70
S'out2'
p128
sg71
Nsg72
I65541
sg73
Nsg50
I4677163320
sa(dp129
g56
(lp130
sg69
I2
sg70
S'out3'
p131
sg71
Nsg72
I65541
sg73
Nsg50
I4677163624
sa(dp132
g56
(lp133
sg69
I3
sg70
S'out4'
p134
sg71
Nsg72
I65541
sg73
Nsg50
I4677163928
sa(dp135
g56
(lp136
sg69
I4
sg70
S'out5'
p137
sg71
Nsg72
I65541
sg73
Nsg50
I4677164232
sa(dp138
g56
(lp139
sg69
I5
sg70
S'out6'
p140
sg71
Nsg72
I65541
sg73
Nsg50
I4677164536
sa(dp141
g56
(lp142
sg69
I6
sg70
S'out7'
p143
sg71
Nsg72
I65541
sg73
Nsg50
I4677164840
sa(dp144
g56
(lp145
sg69
I7
sg70
S'out8'
p146
sg71
Nsg72
I65541
sg73
Nsg50
I4677202152
sa(dp147
g56
(lp148
sg69
I8
sg70
S'out9'
p149
sg71
Nsg72
I65541
sg73
Nsg50
I4677202456
sa(dp150
g56
(lp151
sg69
I9
sg70
S'out10'
p152
sg71
Nsg72
I65541
sg73
Nsg50
I4677202760
sa(dp153
g56
(lp154
sg69
I10
sg70
S'out11'
p155
sg71
Nsg72
I65541
sg73
Nsg50
I4677203064
sa(dp156
g56
(lp157
sg69
I11
sg70
S'out12'
p158
sg71
Nsg72
I65541
sg73
Nsg50
I4677203368
sa(dp159
g56
(lp160
sg69
I12
sg70
S'out13'
p161
sg71
Nsg72
I65541
sg73
Nsg50
I4677203672
sa(dp162
g56
(lp163
sg69
I13
sg70
S'out14'
p164
sg71
Nsg72
I65541
sg73
Nsg50
I4677203976
sa(dp165
g56
(lp166
sg69
I14
sg70
S'out15'
p167
sg71
Nsg72
I65541
sg73
Nsg50
I4677204280
sa(dp168
g56
(lp169
sg69
I15
sg70
S'out16'
p170
sg71
Nsg72
I65541
sg73
Nsg50
I4677204584
sasS'walltime'
p171
S'0.00177216529846'
p172
ssg42
S'Coil Images'
p173
sS'nodes_rel_pos'
p174
(dp175
S'4675050696'
p176
(lp177
F38.122503567193235
aF70.9616209434796
asS'4676913312'
p178
(lp179
F38.122503567193235
aF130.96162094347957
asS'4676760240'
p180
(lp181
F38.122503567193235
aF160.96162094347957
asS'4677614032'
p182
(lp183
F38.122503567193235
aF40.9616209434796
asS'4675251856'
p184
(lp185
F38.122503567193235
aF100.96162094347957
assS'layoutWindow'
p186
(dp187
g26
(dp188
S'top'
p189
(dp190
S'layoutType'
p191
S'vbox'
p192
sS'wdgids'
p193
(lp194
I4676971416
asg42
g189
sssS'config'
p195
I0
ssS'face_settings'
p196
(dp197
g38
(dp198
g40
(lp199
sg42
g43
ssg44
S'1.97887420654e-05'
p200
sg46
g47
sg48
(lp201
F53.44507751869327
aF-4.627088390018315
asg50
I4677204736
sg51
S'0.0'
p202
sg53
(lp203
(dp204
g56
(lp205
(dp206
g59
(dp207
g61
g123
sg63
I0
sg64
I4676728840
sg65
I4676689704
ssg66
(dp208
g61
g125
sg63
I0
sg64
I4677163016
sg65
I4677142232
ssasg69
I0
sg70
g125
sg71
Nsg72
I65541
sg73
Nsg50
I4677163016
sasg171
S'1.97887420654e-05'
p209
ssS'rel_jaw_pos'
p210
(lp211
F-13.77803164309148
aF213.13057991838275
asg50
I4676938512
sS'src_settings'
p212
(dp213
g38
(dp214
g40
(lp215
sg42
g43
ssg44
S'0.000396013259888'
p216
sg46
g47
sg48
(lp217
F-48.81678556620602
aF-21.78069123006594
asg50
I4677087920
sg51
S'0.0'
p218
sg53
(lp219
(dp220
g56
(lp221
sg69
I0
sg70
S'in1'
p222
sg71
Nsg72
I65540
sg73
I200
sg50
I4677092168
sa(dp223
g56
(lp224
sg69
I1
sg70
S'in2'
p225
sg71
Nsg72
I65540
sg73
I200
sg50
I4677092472
sa(dp226
g56
(lp227
sg69
I2
sg70
S'in3'
p228
sg71
Nsg72
I65540
sg73
I200
sg50
I4677092776
sa(dp229
g56
(lp230
sg69
I3
sg70
S'in4'
p231
sg71
Nsg72
I65540
sg73
I200
sg50
I4677093080
sa(dp232
g56
(lp233
sg69
I4
sg70
S'in5'
p234
sg71
Nsg72
I65540
sg73
I200
sg50
I4677093384
sa(dp235
g56
(lp236
sg69
I5
sg70
S'in6'
p237
sg71
Nsg72
I65540
sg73
I200
sg50
I4677093688
sa(dp238
g56
(lp239
sg69
I6
sg70
S'in7'
p240
sg71
Nsg72
I65540
sg73
I200
sg50
I4677093992
sa(dp241
g56
(lp242
sg69
I7
sg70
S'in8'
p243
sg71
Nsg72
I65540
sg73
I200
sg50
I4677094296
sa(dp244
g56
(lp245
sg69
I8
sg70
S'in9'
p246
sg71
Nsg72
I65540
sg73
I200
sg50
I4677094600
sa(dp247
g56
(lp248
sg69
I9
sg70
S'in10'
p249
sg71
Nsg72
I65540
sg73
I200
sg50
I4677094904
sa(dp250
g56
(lp251
sg69
I10
sg70
S'in11'
p252
sg71
Nsg72
I65540
sg73
I200
sg50
I4677095208
sa(dp253
g56
(lp254
sg69
I11
sg70
S'in12'
p255
sg71
Nsg72
I65540
sg73
I200
sg50
I4677140712
sa(dp256
g56
(lp257
sg69
I12
sg70
S'in13'
p258
sg71
Nsg72
I65540
sg73
I200
sg50
I4677141016
sa(dp259
g56
(lp260
sg69
I13
sg70
S'in14'
p261
sg71
Nsg72
I65540
sg73
I200
sg50
I4677141320
sa(dp262
g56
(lp263
sg69
I14
sg70
S'in15'
p264
sg71
Nsg72
I65540
sg73
I200
sg50
I4677141624
sa(dp265
g56
(lp266
sg69
I15
sg70
S'in16'
p267
sg71
Nsg72
I65540
sg73
I200
sg50
I4677141928
sa(dp268
g56
(lp269
sg69
I0
sg70
S'out1'
p270
sg71
Nsg72
I65541
sg73
Nsg50
I4677092320
sa(dp271
g56
(lp272
sg69
I1
sg70
S'out2'
p273
sg71
Nsg72
I65541
sg73
Nsg50
I4677092624
sa(dp274
g56
(lp275
sg69
I2
sg70
S'out3'
p276
sg71
Nsg72
I65541
sg73
Nsg50
I4677092928
sa(dp277
g56
(lp278
sg69
I3
sg70
S'out4'
p279
sg71
Nsg72
I65541
sg73
Nsg50
I4677093232
sa(dp280
g56
(lp281
sg69
I4
sg70
S'out5'
p282
sg71
Nsg72
I65541
sg73
Nsg50
I4677093536
sa(dp283
g56
(lp284
sg69
I5
sg70
S'out6'
p285
sg71
Nsg72
I65541
sg73
Nsg50
I4677093840
sa(dp286
g56
(lp287
sg69
I6
sg70
S'out7'
p288
sg71
Nsg72
I65541
sg73
Nsg50
I4677094144
sa(dp289
g56
(lp290
sg69
I7
sg70
S'out8'
p291
sg71
Nsg72
I65541
sg73
Nsg50
I4677094448
sa(dp292
g56
(lp293
sg69
I8
sg70
S'out9'
p294
sg71
Nsg72
I65541
sg73
Nsg50
I4677094752
sa(dp295
g56
(lp296
sg69
I9
sg70
S'out10'
p297
sg71
Nsg72
I65541
sg73
Nsg50
I4677095056
sa(dp298
g56
(lp299
sg69
I10
sg70
S'out11'
p300
sg71
Nsg72
I65541
sg73
Nsg50
I4677140560
sa(dp301
g56
(lp302
sg69
I11
sg70
S'out12'
p303
sg71
Nsg72
I65541
sg73
Nsg50
I4677140864
sa(dp304
g56
(lp305
sg69
I12
sg70
S'out13'
p306
sg71
Nsg72
I65541
sg73
Nsg50
I4677141168
sa(dp307
g56
(lp308
sg69
I13
sg70
S'out14'
p309
sg71
Nsg72
I65541
sg73
Nsg50
I4677141472
sa(dp310
g56
(lp311
sg69
I14
sg70
S'out15'
p312
sg71
Nsg72
I65541
sg73
Nsg50
I4677141776
sa(dp313
g56
(lp314
sg69
I15
sg70
S'out16'
p315
sg71
Nsg72
I65541
sg73
Nsg50
I4677142080
sasg171
S'0.000396013259888'
p316
ssasg30
(lp317
(dp318
g38
(dp319
g40
(lp320
sg42
g43
ssg44
S'0.000396013259888'
p321
sg46
g47
sg48
(lp322
F-48.81678556620602
aF-21.78069123006594
asg53
(lp323
(dp324
g70
g222
sg69
I0
sg56
(lp325
sg71
Nsg72
I65540
sg73
I200
sg50
I4677092168
sa(dp326
g70
g225
sg69
I1
sg56
(lp327
sg71
Nsg72
I65540
sg73
I200
sg50
I4677092472
sa(dp328
g70
g228
sg69
I2
sg56
(lp329
sg71
Nsg72
I65540
sg73
I200
sg50
I4677092776
sa(dp330
g70
g231
sg69
I3
sg56
(lp331
sg71
Nsg72
I65540
sg73
I200
sg50
I4677093080
sa(dp332
g70
g234
sg69
I4
sg56
(lp333
sg71
Nsg72
I65540
sg73
I200
sg50
I4677093384
sa(dp334
g70
g237
sg69
I5
sg56
(lp335
sg71
Nsg72
I65540
sg73
I200
sg50
I4677093688
sa(dp336
g70
g240
sg69
I6
sg56
(lp337
sg71
Nsg72
I65540
sg73
I200
sg50
I4677093992
sa(dp338
g70
g243
sg69
I7
sg56
(lp339
sg71
Nsg72
I65540
sg73
I200
sg50
I4677094296
sa(dp340
g70
g246
sg69
I8
sg56
(lp341
sg71
Nsg72
I65540
sg73
I200
sg50
I4677094600
sa(dp342
g70
g249
sg69
I9
sg56
(lp343
sg71
Nsg72
I65540
sg73
I200
sg50
I4677094904
sa(dp344
g70
g252
sg69
I10
sg56
(lp345
sg71
Nsg72
I65540
sg73
I200
sg50
I4677095208
sa(dp346
g70
g255
sg69
I11
sg56
(lp347
sg71
Nsg72
I65540
sg73
I200
sg50
I4677140712
sa(dp348
g70
g258
sg69
I12
sg56
(lp349
sg71
Nsg72
I65540
sg73
I200
sg50
I4677141016
sa(dp350
g70
g261
sg69
I13
sg56
(lp351
sg71
Nsg72
I65540
sg73
I200
sg50
I4677141320
sa(dp352
g70
g264
sg69
I14
sg56
(lp353
sg71
Nsg72
I65540
sg73
I200
sg50
I4677141624
sa(dp354
g70
g267
sg69
I15
sg56
(lp355
sg71
Nsg72
I65540
sg73
I200
sg50
I4677141928
sa(dp356
g70
g270
sg69
I0
sg56
(lp357
sg71
Nsg72
I65541
sg73
Nsg50
I4677092320
sa(dp358
g70
g273
sg69
I1
sg56
(lp359
sg71
Nsg72
I65541
sg73
Nsg50
I4677092624
sa(dp360
g70
g276
sg69
I2
sg56
(lp361
sg71
Nsg72
I65541
sg73
Nsg50
I4677092928
sa(dp362
g70
g279
sg69
I3
sg56
(lp363
sg71
Nsg72
I65541
sg73
Nsg50
I4677093232
sa(dp364
g70
g282
sg69
I4
sg56
(lp365
sg71
Nsg72
I65541
sg73
Nsg50
I4677093536
sa(dp366
g70
g285
sg69
I5
sg56
(lp367
sg71
Nsg72
I65541
sg73
Nsg50
I4677093840
sa(dp368
g70
g288
sg69
I6
sg56
(lp369
sg71
Nsg72
I65541
sg73
Nsg50
I4677094144
sa(dp370
g70
g291
sg69
I7
sg56
(lp371
sg71
Nsg72
I65541
sg73
Nsg50
I4677094448
sa(dp372
g70
g294
sg69
I8
sg56
(lp373
sg71
Nsg72
I65541
sg73
Nsg50
I4677094752
sa(dp374
g70
g297
sg69
I9
sg56
(lp375
sg71
Nsg72
I65541
sg73
Nsg50
I4677095056
sa(dp376
g70
g300
sg69
I10
sg56
(lp377
sg71
Nsg72
I65541
sg73
Nsg50
I4677140560
sa(dp378
g70
g303
sg69
I11
sg56
(lp379
sg71
Nsg72
I65541
sg73
Nsg50
I4677140864
sa(dp380
g70
g306
sg69
I12
sg56
(lp381
sg71
Nsg72
I65541
sg73
Nsg50
I4677141168
sa(dp382
g70
g309
sg69
I13
sg56
(lp383
sg71
Nsg72
I65541
sg73
Nsg50
I4677141472
sa(dp384
g70
g312
sg69
I14
sg56
(lp385
sg71
Nsg72
I65541
sg73
Nsg50
I4677141776
sa(dp386
g70
g315
sg69
I15
sg56
(lp387
sg71
Nsg72
I65541
sg73
Nsg50
I4677142080
sasg51
S'0.0'
p388
sg50
I4677087920
sg171
S'0.000396013259888'
p389
sa(dp390
g38
(dp391
g40
(lp392
(dp393
S'type'
p394
S"<class '/opt/gpi/lib/core/math/GPI/FFT_NUMPY_GPI.FFTW_GROUP'>"
p395
sg46
S'Dimension[-1]'
p396
sS'kwargs'
p397
(dp398
S'outport'
p399
I00
sS'quietval'
p400
NsS'val'
p401
(dp402
S'length'
p403
I120
sS'in_len'
p404
I144
sS'compute'
p405
I01
ssS'collapsed'
p406
I00
sS'inport'
p407
I00
sS'visible'
p408
I01
sS'id'
p409
I4676663456
ssa(dp410
g394
S"<class '/opt/gpi/lib/core/math/GPI/FFT_NUMPY_GPI.FFTW_GROUP'>"
p411
sg46
S'Dimension[-2]'
p412
sg397
(dp413
S'outport'
p414
I00
sS'quietval'
p415
Nsg401
(dp416
g403
I89
sg404
I89
sg405
I00
ssS'collapsed'
p417
I00
sS'inport'
p418
I00
sS'visible'
p419
I01
sS'id'
p420
I4676669672
ssa(dp421
g394
S"<class '/opt/gpi/lib/core/math/GPI/FFT_NUMPY_GPI.FFTW_GROUP'>"
p422
sg46
S'Dimension[-3]'
p423
sg397
(dp424
S'outport'
p425
I00
sS'quietval'
p426
Nsg401
(dp427
g403
I3
sg404
I3
sg405
I00
ssS'collapsed'
p428
I00
sS'inport'
p429
I00
sS'visible'
p430
I01
sS'id'
p431
I4676671648
ssa(dp432
g394
S"<class '/opt/gpi/lib/core/math/GPI/FFT_NUMPY_GPI.FFTW_GROUP'>"
p433
sg46
S'Dimension[-4]'
p434
sg397
(dp435
S'outport'
p436
I00
sS'quietval'
p437
Nsg401
(dp438
g403
I12
sg404
I12
sg405
I00
ssS'collapsed'
p439
I00
sS'inport'
p440
I00
sS'visible'
p441
I01
sS'id'
p442
I4676673768
ssa(dp443
g394
S"<class '/opt/gpi/lib/core/math/GPI/FFT_NUMPY_GPI.FFTW_GROUP'>"
p444
sg46
S'Dimension[-5]'
p445
sg397
(dp446
S'outport'
p447
I00
sS'quietval'
p448
Nsg401
(dp449
g403
I12
sg404
I12
sg405
I00
ssS'collapsed'
p450
I00
sS'inport'
p451
I00
sS'visible'
p452
I00
sS'id'
p453
I4676675744
ssa(dp454
g394
S"<class '/opt/gpi/lib/core/math/GPI/FFT_NUMPY_GPI.FFTW_GROUP'>"
p455
sg46
S'Dimension[-6]'
p456
sg397
(dp457
S'outport'
p458
I00
sS'quietval'
p459
Nsg401
(dp460
g403
I1
sg404
I1
sg405
I00
ssS'collapsed'
p461
I00
sS'inport'
p462
I00
sS'visible'
p463
I00
sS'id'
p464
I4676677864
ssa(dp465
g394
S"<class '/opt/gpi/lib/core/math/GPI/FFT_NUMPY_GPI.FFTW_GROUP'>"
p466
sg46
S'Dimension[-7]'
p467
sg397
(dp468
S'outport'
p469
I00
sS'quietval'
p470
Nsg401
(dp471
g403
I1
sg404
I1
sg405
I00
ssS'collapsed'
p472
I00
sS'inport'
p473
I00
sS'visible'
p474
I00
sS'id'
p475
I4676679840
ssa(dp476
g394
S"<class '/opt/gpi/lib/core/math/GPI/FFT_NUMPY_GPI.FFTW_GROUP'>"
p477
sg46
S'Dimension[-8]'
p478
sg397
(dp479
S'outport'
p480
I00
sS'quietval'
p481
Nsg401
(dp482
g403
I1
sg404
I1
sg405
I00
ssS'collapsed'
p483
I00
sS'inport'
p484
I00
sS'visible'
p485
I00
sS'id'
p486
I4676681960
ssa(dp487
g394
S"<class '/opt/gpi/lib/core/math/GPI/FFT_NUMPY_GPI.FFTW_GROUP'>"
p488
sg46
S'Dimension[-9]'
p489
sg397
(dp490
S'outport'
p491
I00
sS'quietval'
p492
Nsg401
(dp493
g403
I1
sg404
I1
sg405
I00
ssS'collapsed'
p494
I00
sS'inport'
p495
I00
sS'visible'
p496
I00
sS'id'
p497
I4676683936
ssa(dp498
g394
S"<class 'gpi.widgets.PushButton'>"
p499
sg46
g405
sg397
(dp500
S'outport'
p501
I00
sS'quietval'
p502
Nsg401
I01
sS'collapsed'
p503
I00
sS'inport'
p504
I00
sS'visible'
p505
I01
sS'toggle'
p506
I01
sS'button_title'
p507
V
p508
sS'id'
p509
I4676686056
ssa(dp510
g394
S"<class 'gpi.widgets.PushButton'>"
p511
sg46
S'direction'
p512
sg397
(dp513
S'outport'
p514
I00
sS'quietval'
p515
Nsg401
I01
sS'collapsed'
p516
I00
sS'inport'
p517
I00
sS'visible'
p518
I01
sS'toggle'
p519
I01
sS'button_title'
p520
VFORWARD
p521
sS'id'
p522
I4676686816
ssasg42
g43
ssg44
S'0.39949311316'
p523
sg46
S'FFT_NUMPY'
p524
sg48
(lp525
F-48.81678556620602
aF-21.78069123006594
asg53
(lp526
(dp527
g70
g123
sg69
I0
sg56
(lp528
(dp529
g59
(dp530
g61
g123
sg64
I4676687576
sg63
I0
sg65
I4675251856
ssg66
(dp531
g61
g68
sg64
I4675249576
sg63
I0
sg65
I4675050696
ssasg71
Nsg72
I65540
sg73
I100
sg50
I4676687576
sa(dp532
g70
g68
sg69
I0
sg56
(lp533
(dp534
g59
(dp535
g61
g123
sg64
I4677013288
sg63
I0
sg65
I4676913312
ssg66
(dp536
g61
g68
sg64
I4676687728
sg63
I0
sg65
I4675251856
ssasg71
Nsg72
I65541
sg73
Nsg50
I4676687728
sasg51
S'0.423260077059'
p537
sS'key'
p538
S'core.math.FFT_NUMPY'
p539
sg50
I4675251856
sg171
S'0.282856941223'
p540
sa(dp541
g38
(dp542
g40
(lp543
(dp544
g394
S"<class 'gpi.widgets.TextBox'>"
p545
sg46
S'I/O Info:'
p546
sg397
(dp547
S'openExternalLinks'
p548
I00
sS'outport'
p549
I00
sS'quietval'
p550
Nsg401
S'input: (12, 3, 89, 120)\noutput: (12, 89, 120)'
p551
sS'collapsed'
p552
I00
sS'inport'
p553
I00
sS'visible'
p554
I01
sS'wordwrap'
p555
I00
sS'id'
p556
I4676956848
ssa(dp557
g394
S"<class '/opt/gpi/lib/core/shapers/GPI/Reduce_GPI.ReduceSliders'>"
p558
sg46
S'Dimension[-1]'
p559
sg397
(dp560
S'outport'
p561
I00
sS'quietval'
p562
Nsg401
(dp563
S'width'
p564
I120
sS'ceiling'
p565
I120
sS'selection'
p566
I3
sS'center'
p567
I61
sS'floor'
p568
I1
ssS'min'
p569
I1
sS'max'
p570
I120
sS'collapsed'
p571
I00
sS'inport'
p572
I00
sS'visible'
p573
I01
sS'id'
p574
I4676957304
ssa(dp575
g394
S"<class '/opt/gpi/lib/core/shapers/GPI/Reduce_GPI.ReduceSliders'>"
p576
sg46
S'Dimension[-2]'
p577
sg397
(dp578
S'outport'
p579
I00
sS'quietval'
p580
Nsg401
(dp581
g564
I89
sg565
I89
sg566
I3
sg567
I45
sg568
I1
ssS'min'
p582
I1
sS'max'
p583
I89
sS'collapsed'
p584
I00
sS'inport'
p585
I00
sS'visible'
p586
I01
sS'id'
p587
I4676962312
ssa(dp588
g394
S"<class '/opt/gpi/lib/core/shapers/GPI/Reduce_GPI.ReduceSliders'>"
p589
sg46
S'Dimension[-3]'
p590
sg397
(dp591
S'outport'
p592
I00
sS'quietval'
p593
Nsg401
(dp594
g564
I1
sg565
I1
sg566
I2
sg567
I1
sg568
I1
ssS'min'
p595
I1
sS'max'
p596
I3
sS'collapsed'
p597
I00
sS'inport'
p598
I00
sS'visible'
p599
I01
sS'id'
p600
I4676971416
ssa(dp601
g394
S"<class '/opt/gpi/lib/core/shapers/GPI/Reduce_GPI.ReduceSliders'>"
p602
sg46
S'Dimension[-4]'
p603
sg397
(dp604
S'outport'
p605
I00
sS'quietval'
p606
Nsg401
(dp607
g564
I12
sg565
I12
sg566
I3
sg567
I7
sg568
I1
ssS'min'
p608
I1
sS'max'
p609
I12
sS'collapsed'
p610
I00
sS'inport'
p611
I00
sS'visible'
p612
I01
sS'id'
p613
I4676976424
ssa(dp614
g394
S"<class '/opt/gpi/lib/core/shapers/GPI/Reduce_GPI.ReduceSliders'>"
p615
sg46
S'Dimension[-5]'
p616
sg397
(dp617
S'outport'
p618
I00
sS'quietval'
p619
Nsg401
(dp620
g564
I12
sg565
I12
sg566
I3
sg567
I7
sg568
I1
ssS'min'
p621
I1
sS'max'
p622
I12
sS'collapsed'
p623
I00
sS'inport'
p624
I00
sS'visible'
p625
I00
sS'id'
p626
I4676981576
ssa(dp627
g394
S"<class '/opt/gpi/lib/core/shapers/GPI/Reduce_GPI.ReduceSliders'>"
p628
sg46
S'Dimension[-6]'
p629
sg397
(dp630
S'outport'
p631
I00
sS'quietval'
p632
Nsg401
(dp633
g564
I100
sg565
I100
sg566
I3
sg567
I51
sg568
I1
ssS'min'
p634
I1
sS'max'
p635
I100
sS'collapsed'
p636
I00
sS'inport'
p637
I00
sS'visible'
p638
I00
sS'id'
p639
I4676986584
ssa(dp640
g394
S"<class '/opt/gpi/lib/core/shapers/GPI/Reduce_GPI.ReduceSliders'>"
p641
sg46
S'Dimension[-7]'
p642
sg397
(dp643
S'outport'
p644
I00
sS'quietval'
p645
Nsg401
(dp646
g564
I100
sg565
I100
sg566
I3
sg567
I51
sg568
I1
ssS'min'
p647
I1
sS'max'
p648
I100
sS'collapsed'
p649
I00
sS'inport'
p650
I00
sS'visible'
p651
I00
sS'id'
p652
I4676991592
ssa(dp653
g394
S"<class '/opt/gpi/lib/core/shapers/GPI/Reduce_GPI.ReduceSliders'>"
p654
sg46
S'Dimension[-8]'
p655
sg397
(dp656
S'outport'
p657
I00
sS'quietval'
p658
Nsg401
(dp659
g564
I100
sg565
I100
sg566
I3
sg567
I51
sg568
I1
ssS'min'
p660
I1
sS'max'
p661
I100
sS'collapsed'
p662
I00
sS'inport'
p663
I00
sS'visible'
p664
I00
sS'id'
p665
I4676996600
ssa(dp666
g394
S"<class '/opt/gpi/lib/core/shapers/GPI/Reduce_GPI.ReduceSliders'>"
p667
sg46
S'Dimension[-9]'
p668
sg397
(dp669
S'outport'
p670
I00
sS'quietval'
p671
Nsg401
(dp672
g564
I100
sg565
I100
sg566
I3
sg567
I51
sg568
I1
ssS'min'
p673
I1
sS'max'
p674
I100
sS'collapsed'
p675
I00
sS'inport'
p676
I00
sS'visible'
p677
I00
sS'id'
p678
I4677001752
ssa(dp679
g394
S"<class '/opt/gpi/lib/core/shapers/GPI/Reduce_GPI.ReduceSliders'>"
p680
sg46
S'Dimension[-10]'
p681
sg397
(dp682
S'outport'
p683
I00
sS'quietval'
p684
Nsg401
(dp685
g564
I100
sg565
I100
sg566
I3
sg567
I51
sg568
I1
ssS'min'
p686
I1
sS'max'
p687
I100
sS'collapsed'
p688
I00
sS'inport'
p689
I00
sS'visible'
p690
I00
sS'id'
p691
I4677006760
ssa(dp692
g394
S"<class 'gpi.widgets.PushButton'>"
p693
sg46
S'Mask'
p694
sg397
(dp695
S'outport'
p696
I00
sS'quietval'
p697
Nsg401
I00
sS'collapsed'
p698
I00
sS'inport'
p699
I00
sS'visible'
p700
I01
sS'toggle'
p701
I01
sS'button_title'
p702
g508
sS'id'
p703
I4677011768
ssa(dp704
g394
S"<class 'gpi.widgets.PushButton'>"
p705
sg46
S'Compute'
p706
sg397
(dp707
S'outport'
p708
I00
sS'quietval'
p709
Nsg401
I01
sS'collapsed'
p710
I00
sS'inport'
p711
I00
sS'visible'
p712
I01
sS'toggle'
p713
I01
sS'button_title'
p714
g508
sS'id'
p715
I4677012528
ssasg42
g43
ssg44
S'0.173058195114'
p716
sg46
S'Reduce'
p717
sg48
(lp718
F-48.81678556620602
aF-21.78069123006594
asg53
(lp719
(dp720
g70
g123
sg69
I0
sg56
(lp721
(dp722
g59
(dp723
g61
g123
sg64
I4677013288
sg63
I0
sg65
I4676913312
ssg66
(dp724
g61
g68
sg64
I4676687728
sg63
I0
sg65
I4675251856
ssasg71
Nsg72
I65540
sg73
I100
sg50
I4677013288
sa(dp725
g70
g68
sg69
I0
sg56
(lp726
(dp727
g59
(dp728
g61
g123
sg64
I4676803176
sg63
I0
sg65
I4676760240
ssg66
(dp729
g61
g68
sg64
I4677013584
sg63
I0
sg65
I4676913312
ssasg71
Nsg72
I65541
sg73
Nsg50
I4677013584
sa(dp730
g70
S'mask'
p731
sg69
I1
sg56
(lp732
sg71
Nsg72
I65541
sg73
Nsg50
I4677013736
sasg51
S'0.0208860729446'
p733
sg538
S'core.shapers.Reduce'
p734
sg50
I4676913312
sg171
S'0.197062015533'
p735
sa(dp736
g38
(dp737
g40
(lp738
(dp739
g394
S"<class '/opt/gpi/lib/core/math/GPI/FFT_NUMPY_GPI.FFTW_GROUP'>"
p740
sg46
S'Dimension[-1]'
p741
sg397
(dp742
S'outport'
p743
I00
sS'quietval'
p744
Nsg401
(dp745
g403
I240
sg404
I120
sg405
I01
ssS'collapsed'
p746
I00
sS'inport'
p747
I00
sS'visible'
p748
I01
sS'id'
p749
I4676762672
ssa(dp750
g394
S"<class '/opt/gpi/lib/core/math/GPI/FFT_NUMPY_GPI.FFTW_GROUP'>"
p751
sg46
S'Dimension[-2]'
p752
sg397
(dp753
S'outport'
p754
I00
sS'quietval'
p755
Nsg401
(dp756
g403
I240
sg404
I89
sg405
I01
ssS'collapsed'
p757
I00
sS'inport'
p758
I00
sS'visible'
p759
I01
sS'id'
p760
I4676777080
ssa(dp761
g394
S"<class '/opt/gpi/lib/core/math/GPI/FFT_NUMPY_GPI.FFTW_GROUP'>"
p762
sg46
S'Dimension[-3]'
p763
sg397
(dp764
S'outport'
p765
I00
sS'quietval'
p766
Nsg401
(dp767
g403
I12
sg404
I12
sg405
I00
ssS'collapsed'
p768
I00
sS'inport'
p769
I00
sS'visible'
p770
I01
sS'id'
p771
I4676779056
ssa(dp772
g394
S"<class '/opt/gpi/lib/core/math/GPI/FFT_NUMPY_GPI.FFTW_GROUP'>"
p773
sg46
S'Dimension[-4]'
p774
sg397
(dp775
S'outport'
p776
I00
sS'quietval'
p777
Nsg401
(dp778
g403
I1
sg404
I1
sg405
I00
ssS'collapsed'
p779
I00
sS'inport'
p780
I00
sS'visible'
p781
I00
sS'id'
p782
I4676789368
ssa(dp783
g394
S"<class '/opt/gpi/lib/core/math/GPI/FFT_NUMPY_GPI.FFTW_GROUP'>"
p784
sg46
S'Dimension[-5]'
p785
sg397
(dp786
S'outport'
p787
I00
sS'quietval'
p788
Nsg401
(dp789
g403
I1
sg404
I1
sg405
I00
ssS'collapsed'
p790
I00
sS'inport'
p791
I00
sS'visible'
p792
I00
sS'id'
p793
I4676791344
ssa(dp794
g394
S"<class '/opt/gpi/lib/core/math/GPI/FFT_NUMPY_GPI.FFTW_GROUP'>"
p795
sg46
S'Dimension[-6]'
p796
sg397
(dp797
S'outport'
p798
I00
sS'quietval'
p799
Nsg401
(dp800
g403
I1
sg404
I1
sg405
I00
ssS'collapsed'
p801
I00
sS'inport'
p802
I00
sS'visible'
p803
I00
sS'id'
p804
I4676793464
ssa(dp805
g394
S"<class '/opt/gpi/lib/core/math/GPI/FFT_NUMPY_GPI.FFTW_GROUP'>"
p806
sg46
S'Dimension[-7]'
p807
sg397
(dp808
S'outport'
p809
I00
sS'quietval'
p810
Nsg401
(dp811
g403
I1
sg404
I1
sg405
I00
ssS'collapsed'
p812
I00
sS'inport'
p813
I00
sS'visible'
p814
I00
sS'id'
p815
I4676795440
ssa(dp816
g394
S"<class '/opt/gpi/lib/core/math/GPI/FFT_NUMPY_GPI.FFTW_GROUP'>"
p817
sg46
S'Dimension[-8]'
p818
sg397
(dp819
S'outport'
p820
I00
sS'quietval'
p821
Nsg401
(dp822
g403
I1
sg404
I1
sg405
I00
ssS'collapsed'
p823
I00
sS'inport'
p824
I00
sS'visible'
p825
I00
sS'id'
p826
I4676797560
ssa(dp827
g394
S"<class '/opt/gpi/lib/core/math/GPI/FFT_NUMPY_GPI.FFTW_GROUP'>"
p828
sg46
S'Dimension[-9]'
p829
sg397
(dp830
S'outport'
p831
I00
sS'quietval'
p832
Nsg401
(dp833
g403
I1
sg404
I1
sg405
I00
ssS'collapsed'
p834
I00
sS'inport'
p835
I00
sS'visible'
p836
I00
sS'id'
p837
I4676799536
ssa(dp838
g394
S"<class 'gpi.widgets.PushButton'>"
p839
sg46
g405
sg397
(dp840
S'outport'
p841
I00
sS'quietval'
p842
Nsg401
I01
sS'collapsed'
p843
I00
sS'inport'
p844
I00
sS'visible'
p845
I01
sS'toggle'
p846
I01
sS'button_title'
p847
g508
sS'id'
p848
I4676801656
ssa(dp849
g394
S"<class 'gpi.widgets.PushButton'>"
p850
sg46
g512
sg397
(dp851
S'outport'
p852
I00
sS'quietval'
p853
Nsg401
I00
sS'collapsed'
p854
I00
sS'inport'
p855
I00
sS'visible'
p856
I01
sS'toggle'
p857
I01
sS'button_title'
p858
VFORWARD
p859
sS'id'
p860
I4676802416
ssasg42
g43
ssg44
S'0.405244636536'
p861
sg46
g524
sg48
(lp862
F-48.81678556620602
aF-21.78069123006594
asg53
(lp863
(dp864
g70
g123
sg69
I0
sg56
(lp865
(dp866
g59
(dp867
g61
g123
sg64
I4676803176
sg63
I0
sg65
I4676760240
ssg66
(dp868
g61
g68
sg64
I4677013584
sg63
I0
sg65
I4676913312
ssasg71
Nsg72
I65540
sg73
I100
sg50
I4676803176
sa(dp869
g70
g68
sg69
I0
sg56
(lp870
(dp871
g59
(dp872
g61
g62
sg64
I4677162864
sg63
I0
sg65
I4677142232
ssg66
(dp873
g61
g68
sg64
I4676803328
sg63
I0
sg65
I4676760240
ssasg71
Nsg72
I65541
sg73
Nsg50
I4676803328
sasg51
S'0.240778561568'
p874
sg538
g539
sg50
I4676760240
sg171
S'0.364481925964'
p875
sa(dp876
g38
(dp877
g40
(lp878
(dp879
g394
S"<class '/opt/gpi/lib/core/math/GPI/FFT_NUMPY_GPI.FFTW_GROUP'>"
p880
sg46
S'Dimension[-1]'
p881
sg397
(dp882
S'outport'
p883
I00
sS'quietval'
p884
Nsg401
(dp885
g403
I144
sg404
I144
sg405
I01
ssS'collapsed'
p886
I00
sS'inport'
p887
I00
sS'visible'
p888
I01
sS'id'
p889
I4675221208
ssa(dp890
g394
S"<class '/opt/gpi/lib/core/math/GPI/FFT_NUMPY_GPI.FFTW_GROUP'>"
p891
sg46
S'Dimension[-2]'
p892
sg397
(dp893
S'outport'
p894
I00
sS'quietval'
p895
Nsg401
(dp896
g403
I89
sg404
I89
sg405
I00
ssS'collapsed'
p897
I00
sS'inport'
p898
I00
sS'visible'
p899
I01
sS'id'
p900
I4675223184
ssa(dp901
g394
S"<class '/opt/gpi/lib/core/math/GPI/FFT_NUMPY_GPI.FFTW_GROUP'>"
p902
sg46
S'Dimension[-3]'
p903
sg397
(dp904
S'outport'
p905
I00
sS'quietval'
p906
Nsg401
(dp907
g403
I3
sg404
I3
sg405
I00
ssS'collapsed'
p908
I00
sS'inport'
p909
I00
sS'visible'
p910
I01
sS'id'
p911
I4675229400
ssa(dp912
g394
S"<class '/opt/gpi/lib/core/math/GPI/FFT_NUMPY_GPI.FFTW_GROUP'>"
p913
sg46
S'Dimension[-4]'
p914
sg397
(dp915
S'outport'
p916
I00
sS'quietval'
p917
Nsg401
(dp918
g403
I12
sg404
I12
sg405
I00
ssS'collapsed'
p919
I00
sS'inport'
p920
I00
sS'visible'
p921
I01
sS'id'
p922
I4675231376
ssa(dp923
g394
S"<class '/opt/gpi/lib/core/math/GPI/FFT_NUMPY_GPI.FFTW_GROUP'>"
p924
sg46
S'Dimension[-5]'
p925
sg397
(dp926
S'outport'
p927
I00
sS'quietval'
p928
Nsg401
(dp929
g403
I12
sg404
I12
sg405
I00
ssS'collapsed'
p930
I00
sS'inport'
p931
I00
sS'visible'
p932
I00
sS'id'
p933
I4675233496
ssa(dp934
g394
S"<class '/opt/gpi/lib/core/math/GPI/FFT_NUMPY_GPI.FFTW_GROUP'>"
p935
sg46
S'Dimension[-6]'
p936
sg397
(dp937
S'outport'
p938
I00
sS'quietval'
p939
Nsg401
(dp940
g403
I1
sg404
I1
sg405
I00
ssS'collapsed'
p941
I00
sS'inport'
p942
I00
sS'visible'
p943
I00
sS'id'
p944
I4675235472
ssa(dp945
g394
S"<class '/opt/gpi/lib/core/math/GPI/FFT_NUMPY_GPI.FFTW_GROUP'>"
p946
sg46
S'Dimension[-7]'
p947
sg397
(dp948
S'outport'
p949
I00
sS'quietval'
p950
Nsg401
(dp951
g403
I1
sg404
I1
sg405
I00
ssS'collapsed'
p952
I00
sS'inport'
p953
I00
sS'visible'
p954
I00
sS'id'
p955
I4675237592
ssa(dp956
g394
S"<class '/opt/gpi/lib/core/math/GPI/FFT_NUMPY_GPI.FFTW_GROUP'>"
p957
sg46
S'Dimension[-8]'
p958
sg397
(dp959
S'outport'
p960
I00
sS'quietval'
p961
Nsg401
(dp962
g403
I1
sg404
I1
sg405
I00
ssS'collapsed'
p963
I00
sS'inport'
p964
I00
sS'visible'
p965
I00
sS'id'
p966
I4675239568
ssa(dp967
g394
S"<class '/opt/gpi/lib/core/math/GPI/FFT_NUMPY_GPI.FFTW_GROUP'>"
p968
sg46
S'Dimension[-9]'
p969
sg397
(dp970
S'outport'
p971
I00
sS'quietval'
p972
Nsg401
(dp973
g403
I1
sg404
I1
sg405
I00
ssS'collapsed'
p974
I00
sS'inport'
p975
I00
sS'visible'
p976
I00
sS'id'
p977
I4675245784
ssa(dp978
g394
S"<class 'gpi.widgets.PushButton'>"
p979
sg46
g405
sg397
(dp980
S'outport'
p981
I00
sS'quietval'
p982
Nsg401
I01
sS'collapsed'
p983
I00
sS'inport'
p984
I00
sS'visible'
p985
I01
sS'toggle'
p986
I01
sS'button_title'
p987
g508
sS'id'
p988
I4675247760
ssa(dp989
g394
S"<class 'gpi.widgets.PushButton'>"
p990
sg46
g512
sg397
(dp991
S'outport'
p992
I00
sS'quietval'
p993
Nsg401
I00
sS'collapsed'
p994
I00
sS'inport'
p995
I00
sS'visible'
p996
I01
sS'toggle'
p997
I01
sS'button_title'
p998
VFORWARD
p999
sS'id'
p1000
I4675248664
ssasg42
g43
ssg44
S'0.668796706199'
p1001
sg46
g524
sg48
(lp1002
F-48.81678556620602
aF-21.78069123006594
asg53
(lp1003
(dp1004
g70
g123
sg69
I0
sg56
(lp1005
(dp1006
g59
(dp1007
g61
g123
sg64
I4675249424
sg63
I0
sg65
I4675050696
ssg66
(dp1008
g61
g68
sg64
I4677624040
sg63
I0
sg65
I4677614032
ssasg71
Nsg72
I65540
sg73
I100
sg50
I4675249424
sa(dp1009
g70
g68
sg69
I0
sg56
(lp1010
(dp1011
g59
(dp1012
g61
g123
sg64
I4676687576
sg63
I0
sg65
I4675251856
ssg66
(dp1013
g61
g68
sg64
I4675249576
sg63
I0
sg65
I4675050696
ssasg71
Nsg72
I65541
sg73
Nsg50
I4675249576
sasg51
S'0.715335255157'
p1014
sg538
g539
sg50
I4675050696
sg171
S'0.273115873337'
p1015
sa(dp1016
g38
(dp1017
g40
(lp1018
sg42
g43
ssg44
S'0.0016556084156'
p1019
sg46
g47
sg48
(lp1020
F-48.81678556620602
aF-21.78069123006594
asg53
(lp1021
(dp1022
g70
g62
sg69
I0
sg56
(lp1023
(dp1024
g59
(dp1025
g61
g62
sg64
I4677162864
sg63
I0
sg65
I4677142232
ssg66
(dp1026
g61
g68
sg64
I4676803328
sg63
I0
sg65
I4676760240
ssasg71
Nsg72
I65540
sg73
I200
sg50
I4677162864
sa(dp1027
g70
g76
sg69
I1
sg56
(lp1028
sg71
Nsg72
I65540
sg73
I200
sg50
I4677163168
sa(dp1029
g70
g79
sg69
I2
sg56
(lp1030
sg71
Nsg72
I65540
sg73
I200
sg50
I4677163472
sa(dp1031
g70
g82
sg69
I3
sg56
(lp1032
sg71
Nsg72
I65540
sg73
I200
sg50
I4677163776
sa(dp1033
g70
g85
sg69
I4
sg56
(lp1034
sg71
Nsg72
I65540
sg73
I200
sg50
I4677164080
sa(dp1035
g70
g88
sg69
I5
sg56
(lp1036
sg71
Nsg72
I65540
sg73
I200
sg50
I4677164384
sa(dp1037
g70
g91
sg69
I6
sg56
(lp1038
sg71
Nsg72
I65540
sg73
I200
sg50
I4677164688
sa(dp1039
g70
g94
sg69
I7
sg56
(lp1040
sg71
Nsg72
I65540
sg73
I200
sg50
I4677202000
sa(dp1041
g70
g97
sg69
I8
sg56
(lp1042
sg71
Nsg72
I65540
sg73
I200
sg50
I4677202304
sa(dp1043
g70
g100
sg69
I9
sg56
(lp1044
sg71
Nsg72
I65540
sg73
I200
sg50
I4677202608
sa(dp1045
g70
g103
sg69
I10
sg56
(lp1046
sg71
Nsg72
I65540
sg73
I200
sg50
I4677202912
sa(dp1047
g70
g106
sg69
I11
sg56
(lp1048
sg71
Nsg72
I65540
sg73
I200
sg50
I4677203216
sa(dp1049
g70
g109
sg69
I12
sg56
(lp1050
sg71
Nsg72
I65540
sg73
I200
sg50
I4677203520
sa(dp1051
g70
g112
sg69
I13
sg56
(lp1052
sg71
Nsg72
I65540
sg73
I200
sg50
I4677203824
sa(dp1053
g70
g115
sg69
I14
sg56
(lp1054
sg71
Nsg72
I65540
sg73
I200
sg50
I4677204128
sa(dp1055
g70
g118
sg69
I15
sg56
(lp1056
sg71
Nsg72
I65540
sg73
I200
sg50
I4677204432
sa(dp1057
g70
g125
sg69
I0
sg56
(lp1058
(dp1059
g59
(dp1060
g61
g123
sg64
I4676728840
sg63
I0
sg65
I4676689704
ssg66
(dp1061
g61
g125
sg64
I4677163016
sg63
I0
sg65
I4677142232
ssasg71
Nsg72
I65541
sg73
Nsg50
I4677163016
sa(dp1062
g70
g128
sg69
I1
sg56
(lp1063
sg71
Nsg72
I65541
sg73
Nsg50
I4677163320
sa(dp1064
g70
g131
sg69
I2
sg56
(lp1065
sg71
Nsg72
I65541
sg73
Nsg50
I4677163624
sa(dp1066
g70
g134
sg69
I3
sg56
(lp1067
sg71
Nsg72
I65541
sg73
Nsg50
I4677163928
sa(dp1068
g70
g137
sg69
I4
sg56
(lp1069
sg71
Nsg72
I65541
sg73
Nsg50
I4677164232
sa(dp1070
g70
g140
sg69
I5
sg56
(lp1071
sg71
Nsg72
I65541
sg73
Nsg50
I4677164536
sa(dp1072
g70
g143
sg69
I6
sg56
(lp1073
sg71
Nsg72
I65541
sg73
Nsg50
I4677164840
sa(dp1074
g70
g146
sg69
I7
sg56
(lp1075
sg71
Nsg72
I65541
sg73
Nsg50
I4677202152
sa(dp1076
g70
g149
sg69
I8
sg56
(lp1077
sg71
Nsg72
I65541
sg73
Nsg50
I4677202456
sa(dp1078
g70
g152
sg69
I9
sg56
(lp1079
sg71
Nsg72
I65541
sg73
Nsg50
I4677202760
sa(dp1080
g70
g155
sg69
I10
sg56
(lp1081
sg71
Nsg72
I65541
sg73
Nsg50
I4677203064
sa(dp1082
g70
g158
sg69
I11
sg56
(lp1083
sg71
Nsg72
I65541
sg73
Nsg50
I4677203368
sa(dp1084
g70
g161
sg69
I12
sg56
(lp1085
sg71
Nsg72
I65541
sg73
Nsg50
I4677203672
sa(dp1086
g70
g164
sg69
I13
sg56
(lp1087
sg71
Nsg72
I65541
sg73
Nsg50
I4677203976
sa(dp1088
g70
g167
sg69
I14
sg56
(lp1089
sg71
Nsg72
I65541
sg73
Nsg50
I4677204280
sa(dp1090
g70
g170
sg69
I15
sg56
(lp1091
sg71
Nsg72
I65541
sg73
Nsg50
I4677204584
sasg51
S'0.000597576990855'
p1092
sg50
I4677142232
sg171
S'0.00177216529846'
p1093
sa(dp1094
g38
(dp1095
g40
(lp1096
(dp1097
g394
S"<class 'gpi.widgets.TextBox'>"
p1098
sg46
S'I/O Info:'
p1099
sg397
(dp1100
S'openExternalLinks'
p1101
I00
sS'outport'
p1102
I00
sS'quietval'
p1103
Nsg401
S'created: 07/11/2014\naccessed: 07/11/2014\nmodified: 07/11/2014\nUID: 501\nGID: 20\nfile size (bytes): 3691104\ndimensions: [12, 3, 89, 144]\ntype: complex64\n'
p1104
sS'collapsed'
p1105
I00
sS'inport'
p1106
I00
sS'visible'
p1107
I01
sS'wordwrap'
p1108
I00
sS'id'
p1109
I4677622072
ssa(dp1110
g394
S"<class 'gpi.widgets.OpenFileBrowser'>"
p1111
sg46
S'File Browser'
p1112
sg397
(dp1113
S'outport'
p1114
I00
sS'quietval'
p1115
Nsg401
S'/opt/gpi/doc/Examples/FFE_MS.npy'
p1116
sS'collapsed'
p1117
I00
sS'inport'
p1118
I00
sS'visible'
p1119
I01
sS'id'
p1120
I4677622528
ssa(dp1121
g394
S"<class 'gpi.widgets.PushButton'>"
p1122
sg46
S'Squeeze'
p1123
sg397
(dp1124
S'outport'
p1125
I00
sS'quietval'
p1126
Nsg401
I00
sS'collapsed'
p1127
I00
sS'inport'
p1128
I00
sS'visible'
p1129
I01
sS'toggle'
p1130
I01
sS'button_title'
p1131
g508
sS'id'
p1132
I4677623136
ssasg42
g43
ssg44
S'0.0475853681564'
p1133
sg46
S'ReadNPY'
p1134
sg48
(lp1135
F-48.81678556620602
aF-21.78069123006594
asg53
(lp1136
(dp1137
g70
g68
sg69
I0
sg56
(lp1138
(dp1139
g59
(dp1140
g61
g123
sg64
I4675249424
sg63
I0
sg65
I4675050696
ssg66
(dp1141
g61
g68
sg64
I4677624040
sg63
I0
sg65
I4677614032
ssasg71
Nsg72
I65541
sg73
Nsg50
I4677624040
sasg51
S'0.00939548015594'
p1142
sg538
S'core.fileIO.ReadNPY'
p1143
sg50
I4677614032
sg171
S'0.0569808483124'
p1144
sa(dp1145
g38
(dp1146
g40
(lp1147
sg42
g43
ssg44
S'1.97887420654e-05'
p1148
sg46
g47
sg48
(lp1149
F53.44507751869327
aF-4.627088390018315
asg53
(lp1150
(dp1151
g70
g125
sg69
I0
sg56
(lp1152
(dp1153
g59
(dp1154
g61
g123
sg64
I4676728840
sg63
I0
sg65
I4676689704
ssg66
(dp1155
g61
g125
sg64
I4677163016
sg63
I0
sg65
I4677142232
ssasg71
Nsg72
I65541
sg73
Nsg50
I4677163016
sasg51
S'0.0'
p1156
sg50
I4677204736
sg171
S'1.97887420654e-05'
p1157
sa(dp1158
g38
(dp1159
g40
(lp1160
(dp1161
g394
S"<class 'gpi.widgets.ExclusivePushButtons'>"
p1162
sg46
S'R I M P'
p1163
sg397
(dp1164
S'outport'
p1165
I00
sS'quietval'
p1166
Nsg401
I2
sS'collapsed'
p1167
I00
sS'inport'
p1168
I00
sS'visible'
p1169
I01
sS'id'
p1170
I4676725048
ssa(dp1171
g394
S"<class 'gpi.widgets.ExclusivePushButtons'>"
p1172
sg46
S'Units'
p1173
sg397
(dp1174
S'outport'
p1175
I00
sS'quietval'
p1176
Nsg401
I1
sS'collapsed'
p1177
I00
sS'inport'
p1178
I00
sS'visible'
p1179
I00
sS'id'
p1180
I4676725960
ssa(dp1181
g394
S"<class 'gpi.widgets.PushButton'>"
p1182
sg46
S'UnWrap'
p1183
sg397
(dp1184
S'outport'
p1185
I00
sS'quietval'
p1186
Nsg401
I00
sS'collapsed'
p1187
I00
sS'inport'
p1188
I00
sS'visible'
p1189
I00
sS'toggle'
p1190
I01
sS'button_title'
p1191
g508
sS'id'
p1192
I4676726864
ssa(dp1193
g394
S"<class 'gpi.widgets.Slider'>"
p1194
sg46
S'UnWrap Dimension'
p1195
sg397
(dp1196
S'outport'
p1197
I00
sS'quietval'
p1198
Nsg401
I0
sS'min'
p1199
I-3
sS'max'
p1200
I2
sS'collapsed'
p1201
I00
sS'inport'
p1202
I00
sS'visible'
p1203
I00
sS'id'
p1204
I4676727624
ssasg42
S'Mag'
p1205
ssg44
S'0.312188022277'
p1206
sg46
S'RIMP'
p1207
sg48
(lp1208
F110.82030501948907
aF38.42679928354359
asg53
(lp1209
(dp1210
g70
g123
sg69
I0
sg56
(lp1211
(dp1212
g59
(dp1213
g61
g123
sg64
I4676728840
sg63
I0
sg65
I4676689704
ssg66
(dp1214
g61
g125
sg64
I4677163016
sg63
I0
sg65
I4677142232
ssasg71
Nsg72
I65540
sg73
I100
sg50
I4676728840
sa(dp1215
g70
g68
sg69
I0
sg56
(lp1216
(dp1217
g59
(dp1218
g61
g123
sg64
I4676850504
sg63
I0
sg65
I4676834120
ssg66
(dp1219
g61
g68
sg64
I4676728992
sg63
I0
sg65
I4676689704
ssasg71
Nsg72
I65541
sg73
Nsg50
I4676728992
sasg51
S'0.158325055397'
p1220
sg538
S'core.math.RIMP'
p1221
sg50
I4676689704
sg171
S'0.225104808807'
p1222
sa(dp1223
g38
(dp1224
g40
(lp1225
(dp1226
g394
S"<class 'gpi.widgets.TextBox'>"
p1227
sg46
S'Status'
p1228
sg397
(dp1229
S'openExternalLinks'
p1230
I00
sS'outport'
p1231
I00
sS'quietval'
p1232
Nsg401
S'Ready'
p1233
sS'collapsed'
p1234
I00
sS'inport'
p1235
I00
sS'visible'
p1236
I01
sS'wordwrap'
p1237
I00
sS'id'
p1238
I4676836552
ssa(dp1239
g394
S"<class 'gpi.widgets.TextBox'>"
p1240
sg46
S'Info'
p1241
sg397
(dp1242
S'openExternalLinks'
p1243
I00
sS'outport'
p1244
I00
sS'quietval'
p1245
Nsg401
S'input: (12, 240, 240)\noutput: (240, 240)'
p1246
sS'collapsed'
p1247
I00
sS'inport'
p1248
I00
sS'visible'
p1249
I01
sS'wordwrap'
p1250
I00
sS'id'
p1251
I4676837008
ssa(dp1252
g394
S"<class 'gpi.widgets.ExclusiveRadioButtons'>"
p1253
sg46
S'Operation'
p1254
sg397
(dp1255
S'outport'
p1256
I00
sS'quietval'
p1257
Nsg401
I5
sS'collapsed'
p1258
I00
sS'inport'
p1259
I00
sS'visible'
p1260
I01
sS'id'
p1261
I4676841704
ssa(dp1262
g394
S"<class 'gpi.widgets.PushButton'>"
p1263
sg46
g706
sg397
(dp1264
S'outport'
p1265
I00
sS'quietval'
p1266
Nsg401
I01
sS'collapsed'
p1267
I00
sS'inport'
p1268
I00
sS'visible'
p1269
I01
sS'toggle'
p1270
I01
sS'button_title'
p1271
g508
sS'id'
p1272
I4676843832
ssa(dp1273
g394
S"<class 'gpi.widgets.PushButton'>"
p1274
sg46
S'Collapse All'
p1275
sg397
(dp1276
S'outport'
p1277
I00
sS'quietval'
p1278
Nsg401
I00
sS'collapsed'
p1279
I00
sS'inport'
p1280
I00
sS'visible'
p1281
I01
sS'toggle'
p1282
I01
sS'button_title'
p1283
g508
sS'id'
p1284
I4676844592
ssa(dp1285
g394
S"<class 'gpi.widgets.ExclusivePushButtons'>"
p1286
sg46
S'Dimension'
p1287
sg397
(dp1288
S'outport'
p1289
I00
sS'quietval'
p1290
Nsg401
I2
sS'collapsed'
p1291
I00
sS'inport'
p1292
I00
sS'visible'
p1293
I01
sS'id'
p1294
I4676845352
ssa(dp1295
g394
S"<class 'gpi.widgets.PushButton'>"
p1296
sg46
S'Span Entire Dimension'
p1297
sg397
(dp1298
S'outport'
p1299
I00
sS'quietval'
p1300
Nsg401
I01
sS'collapsed'
p1301
I00
sS'inport'
p1302
I00
sS'visible'
p1303
I01
sS'toggle'
p1304
I01
sS'button_title'
p1305
g508
sS'id'
p1306
I4676846408
ssa(dp1307
g394
S"<class 'gpi.widgets.Slider'>"
p1308
sg46
S'Dimension Start_Index'
p1309
sg397
(dp1310
S'outport'
p1311
I00
sS'quietval'
p1312
Nsg401
I0
sS'min'
p1313
I0
sS'max'
p1314
I12
sS'collapsed'
p1315
I00
sS'inport'
p1316
I00
sS'visible'
p1317
I00
sS'id'
p1318
I4676847168
ssa(dp1319
g394
S"<class 'gpi.widgets.Slider'>"
p1320
sg46
S'Dimension Stop_Index'
p1321
sg397
(dp1322
S'outport'
p1323
I00
sS'quietval'
p1324
Nsg401
I0
sS'min'
p1325
I0
sS'max'
p1326
I12
sS'collapsed'
p1327
I00
sS'inport'
p1328
I00
sS'visible'
p1329
I00
sS'id'
p1330
I4676848384
ssa(dp1331
g394
S"<class 'gpi.widgets.PushButton'>"
p1332
sg46
S'Non-Zero'
p1333
sg397
(dp1334
S'outport'
p1335
I00
sS'quietval'
p1336
Nsg401
I00
sS'collapsed'
p1337
I00
sS'inport'
p1338
I00
sS'visible'
p1339
I00
sS'toggle'
p1340
I01
sS'button_title'
p1341
g508
sS'id'
p1342
I4676849744
ssasg42
g43
ssg44
S'0.185043510269'
p1343
sg46
S'Collapse'
p1344
sg48
(lp1345
F110.82030501948907
aF68.42679928354359
asg53
(lp1346
(dp1347
g70
g123
sg69
I0
sg56
(lp1348
(dp1349
g59
(dp1350
g61
g123
sg64
I4676850504
sg63
I0
sg65
I4676834120
ssg66
(dp1351
g61
g68
sg64
I4676728992
sg63
I0
sg65
I4676689704
ssasg71
Nsg72
I65540
sg73
I100
sg50
I4676850504
sa(dp1352
g70
S'Collapse Dim'
p1353
sg69
I0
sg56
(lp1354
(dp1355
g59
(dp1356
g61
g123
sg64
I4677068048
sg63
I0
sg65
I4677015712
ssg66
(dp1357
g61
g1353
sg64
I4676850656
sg63
I0
sg65
I4676834120
ssasg71
Nsg72
I65541
sg73
Nsg50
I4676850656
sa(dp1358
g70
g1275
sg69
I1
sg56
(lp1359
sg71
Nsg72
I65541
sg73
Nsg50
I4676850808
sa(dp1360
g70
S'Max Val Index'
p1361
sg69
I2
sg56
(lp1362
sg71
Nsg72
I65541
sg73
Nsg50
I4676850960
sasg51
S'0.0772179698563'
p1363
sg538
S'core.math.Collapse'
p1364
sg50
I4676834120
sg171
S'0.15779209137'
p1365
sa(dp1366
g38
(dp1367
g40
(lp1368
(dp1369
g394
S"<class 'gpi.widgets.ExclusivePushButtons'>"
p1370
sg46
S'Complex Display'
p1371
sg397
(dp1372
S'outport'
p1373
I00
sS'quietval'
p1374
Nsg401
I4
sS'collapsed'
p1375
I00
sS'inport'
p1376
I00
sS'visible'
p1377
I00
sS'id'
p1378
I4677042864
ssa(dp1379
g394
S"<class 'gpi.widgets.ExclusivePushButtons'>"
p1380
sg46
S'Color Map'
p1381
sg397
(dp1382
S'outport'
p1383
I00
sS'quietval'
p1384
Nsg401
I0
sS'collapsed'
p1385
I01
sS'inport'
p1386
I00
sS'visible'
p1387
I01
sS'id'
p1388
I4677043928
ssa(dp1389
g394
S"<class 'gpi.widgets.SpinBox'>"
p1390
sg46
S'Edge Pixels'
p1391
sg397
(dp1392
S'outport'
p1393
I00
sS'quietval'
p1394
Nsg401
I0
sS'min'
p1395
I0
sS'max'
p1396
I2147483647
sS'collapsed'
p1397
I00
sS'wrapping'
p1398
I00
sS'immediate'
p1399
I00
sS'label'
p1400
g508
sS'singlestep'
p1401
I1
sS'visible'
p1402
I00
sS'inport'
p1403
I00
sS'id'
p1404
I4677045144
ssa(dp1405
g394
S"<class 'gpi.widgets.SpinBox'>"
p1406
sg46
S'Black Pixels'
p1407
sg397
(dp1408
S'outport'
p1409
I00
sS'quietval'
p1410
Nsg401
I0
sS'min'
p1411
I0
sS'max'
p1412
I2147483647
sS'collapsed'
p1413
I00
sS'wrapping'
p1414
I00
sS'immediate'
p1415
I00
sS'label'
p1416
g508
sS'singlestep'
p1417
I1
sS'visible'
p1418
I00
sS'inport'
p1419
I00
sS'id'
p1420
I4677046056
ssa(dp1421
g394
S"<class 'gpi.widgets.DisplayBox'>"
p1422
sg46
S'Viewport:'
p1423
sg397
(dp1424
S'outport'
p1425
I00
sS'scale'
p1426
F2.200000000000001
sS'quietval'
p1427
Nsg401
NsS'collapsed'
p1428
I00
sS'interp'
p1429
I01
sS'inport'
p1430
I00
sS'visible'
p1431
I01
sS'noscroll'
p1432
I01
sS'points'
p1433
NsS'line'
p1434
NsS'id'
p1435
I4677047112
ssa(dp1436
g394
S"<class '/opt/gpi/lib/core/display/GPI/ImageDisplay_GPI.WindowLevel'>"
p1437
sg46
S'L W F C:'
p1438
sg397
(dp1439
S'outport'
p1440
I00
sS'quietval'
p1441
Nsg401
(dp1442
S'window'
p1443
I100
sg568
I0
sg565
I100
sS'level'
p1444
I50
ssS'min'
p1445
I0
sS'max'
p1446
I100
sS'collapsed'
p1447
I01
sS'inport'
p1448
I00
sS'visible'
p1449
I01
sS'id'
p1450
I4677049544
ssa(dp1451
g394
S"<class 'gpi.widgets.ExclusivePushButtons'>"
p1452
sg46
S'Scalar Display'
p1453
sg397
(dp1454
S'outport'
p1455
I00
sS'quietval'
p1456
Nsg401
I0
sS'collapsed'
p1457
I00
sS'inport'
p1458
I00
sS'visible'
p1459
I01
sS'id'
p1460
I4677054544
ssa(dp1461
g394
S"<class 'gpi.widgets.DoubleSpinBox'>"
p1462
sg46
S'Gamma'
p1463
sg397
(dp1464
S'outport'
p1465
I00
sS'quietval'
p1466
Nsg401
F1.0
sS'min'
p1467
F0.1
sS'max'
p1468
F10.0
sS'collapsed'
p1469
I00
sS'wrapping'
p1470
I00
sS'immediate'
p1471
I00
sS'label'
p1472
g508
sS'singlestep'
p1473
F0.05
sS'visible'
p1474
I01
sS'inport'
p1475
I00
sS'decimals'
p1476
I3
sS'id'
p1477
I4677055304
ssa(dp1478
g394
S"<class 'gpi.widgets.ExclusivePushButtons'>"
p1479
sg46
S'Zero Ref'
p1480
sg397
(dp1481
S'outport'
p1482
I00
sS'quietval'
p1483
Nsg401
I0
sS'collapsed'
p1484
I00
sS'inport'
p1485
I00
sS'visible'
p1486
I01
sS'id'
p1487
I4677056216
ssa(dp1488
g394
S"<class 'gpi.widgets.PushButton'>"
p1489
sg46
S'Fix Range'
p1490
sg397
(dp1491
S'outport'
p1492
I00
sS'quietval'
p1493
Nsg401
I00
sS'collapsed'
p1494
I00
sS'inport'
p1495
I00
sS'visible'
p1496
I01
sS'toggle'
p1497
I01
sS'button_title'
p1498
VAuto-Range On
p1499
sS'id'
p1500
I4677057128
ssa(dp1501
g394
S"<class 'gpi.widgets.DoubleSpinBox'>"
p1502
sg46
S'Range Min'
p1503
sg397
(dp1504
S'outport'
p1505
I00
sS'quietval'
p1506
Nsg401
F48.5
sS'min'
p1507
F-1.7976931348623157e+308
sS'max'
p1508
F1.7976931348623157e+308
sS'collapsed'
p1509
I00
sS'wrapping'
p1510
I00
sS'immediate'
p1511
I00
sS'label'
p1512
g508
sS'singlestep'
p1513
F1.0
sS'visible'
p1514
I01
sS'inport'
p1515
I00
sS'decimals'
p1516
I2
sS'id'
p1517
I4677057888
ssa(dp1518
g394
S"<class 'gpi.widgets.DoubleSpinBox'>"
p1519
sg46
S'Range Max'
p1520
sg397
(dp1521
S'outport'
p1522
I00
sS'quietval'
p1523
Nsg401
F14250.88
sS'min'
p1524
F-1.7976931348623157e+308
sS'max'
p1525
F1.7976931348623157e+308
sS'collapsed'
p1526
I00
sS'wrapping'
p1527
I00
sS'immediate'
p1528
I00
sS'label'
p1529
g508
sS'singlestep'
p1530
F1.0
sS'visible'
p1531
I01
sS'inport'
p1532
I00
sS'decimals'
p1533
I2
sS'id'
p1534
I4677067136
ssasg42
g43
ssg44
S'0.0160030964259'
p1535
sg46
S'ImageDisplay'
p1536
sg48
(lp1537
F110.82030501948907
aF98.42679928354359
asg53
(lp1538
(dp1539
g70
g123
sg69
I0
sg56
(lp1540
(dp1541
g59
(dp1542
g61
g123
sg64
I4677068048
sg63
I0
sg65
I4677015712
ssg66
(dp1543
g61
g1353
sg64
I4676850656
sg63
I0
sg65
I4676834120
ssasg71
Nsg72
I65540
sg73
I100
sg50
I4677068048
sa(dp1544
g70
g68
sg69
I0
sg56
(lp1545
sg71
Nsg72
I65541
sg73
Nsg50
I4677068200
sasg51
S'0.00501006323636'
p1546
sg538
S'core.display.ImageDisplay'
p1547
sg50
I4677015712
sg171
S'0.00773692131042'
p1548
sassS'WALLTIME'
p1549
S'0.000648021697998'
p1550
s.